target datalayout = "e-m:e-p270:32:32-p271:32:32-p272:64:64-i64:64-i128:128-f80:128-n8:16:32:64-S128"
target triple = "x86_64-pc-linux-gnu"

%"class.LightGBM::Metadata" = type <{ %"class.std::__cxx11::basic_string", i32, i32, i32, [4 x i8], %"class.std::vector", %"class.std::vector", %"class.std::vector.3", %"class.std::vector.8", %"class.std::vector.3", %"class.std::vector", i32, [4 x i8], i64, %"class.std::vector.13", %"class.std::vector.3", %"class.std::mutex", i8, i8, i8, i8, [4 x i8] }>
%"class.std::__cxx11::basic_string" = type { %"struct.std::__cxx11::basic_string<char>::_Alloc_hider", i64, %union.anon }
%"struct.std::__cxx11::basic_string<char>::_Alloc_hider" = type { ptr }
%union.anon = type { i64, [8 x i8] }
%"class.std::vector.8" = type { %"struct.std::_Vector_base.9" }
%"struct.std::_Vector_base.9" = type { %"struct.std::_Vector_base<std::__cxx11::basic_string<char>, std::allocator<std::__cxx11::basic_string<char>>>::_Vector_impl" }
%"struct.std::_Vector_base<std::__cxx11::basic_string<char>, std::allocator<std::__cxx11::basic_string<char>>>::_Vector_impl" = type { %"struct.std::_Vector_base<std::__cxx11::basic_string<char>, std::allocator<std::__cxx11::basic_string<char>>>::_Vector_impl_data" }
%"struct.std::_Vector_base<std::__cxx11::basic_string<char>, std::allocator<std::__cxx11::basic_string<char>>>::_Vector_impl_data" = type { ptr, ptr, ptr }
%"class.std::vector" = type { %"struct.std::_Vector_base" }
%"struct.std::_Vector_base" = type { %"struct.std::_Vector_base<float, std::allocator<float>>::_Vector_impl" }
%"struct.std::_Vector_base<float, std::allocator<float>>::_Vector_impl" = type { %"struct.std::_Vector_base<float, std::allocator<float>>::_Vector_impl_data" }
%"struct.std::_Vector_base<float, std::allocator<float>>::_Vector_impl_data" = type { ptr, ptr, ptr }
%"class.std::vector.13" = type { %"struct.std::_Vector_base.14" }
%"struct.std::_Vector_base.14" = type { %"struct.std::_Vector_base<double, std::allocator<double>>::_Vector_impl" }
%"struct.std::_Vector_base<double, std::allocator<double>>::_Vector_impl" = type { %"struct.std::_Vector_base<double, std::allocator<double>>::_Vector_impl_data" }
%"struct.std::_Vector_base<double, std::allocator<double>>::_Vector_impl_data" = type { ptr, ptr, ptr }
%"class.std::vector.3" = type { %"struct.std::_Vector_base.4" }
%"struct.std::_Vector_base.4" = type { %"struct.std::_Vector_base<int, std::allocator<int>>::_Vector_impl" }
%"struct.std::_Vector_base<int, std::allocator<int>>::_Vector_impl" = type { %"struct.std::_Vector_base<int, std::allocator<int>>::_Vector_impl_data" }
%"struct.std::_Vector_base<int, std::allocator<int>>::_Vector_impl_data" = type { ptr, ptr, ptr }
%"class.std::mutex" = type { %"class.std::__mutex_base" }
%"class.std::__mutex_base" = type { %union.pthread_mutex_t }
%union.pthread_mutex_t = type { %struct.__pthread_mutex_s }
%struct.__pthread_mutex_s = type { i32, i32, i32, i32, i32, i16, i16, %struct.__pthread_internal_list }
%struct.__pthread_internal_list = type { ptr, ptr }

; Function Attrs: inlinehint mustprogress nounwind uwtable
define linkonce_odr noundef i32 @_ZNK8LightGBM8Metadata22num_init_score_classesEv(ptr noundef nonnull align 8 dereferenceable(300) %0) #12 comdat align 2 {
  %2 = alloca i32, align 4
  %3 = alloca ptr, align 8
  store ptr %0, ptr %3, align 8, !tbaa !4
  %4 = load ptr, ptr %3, align 8
  %5 = getelementptr inbounds nuw %"class.LightGBM::Metadata", ptr %4, i32 0, i32 1
  %6 = load i32, ptr %5, align 8, !tbaa !40
  %7 = icmp ne i32 %6, 0
  br i1 %7, label %8, label %20

8:                                                ; preds = %1
  %9 = getelementptr inbounds nuw %"class.LightGBM::Metadata", ptr %4, i32 0, i32 13
  %10 = load i64, ptr %9, align 8, !tbaa !39
  %11 = icmp ne i64 %10, 0
  br i1 %11, label %12, label %20

12:                                               ; preds = %8
  %13 = getelementptr inbounds nuw %"class.LightGBM::Metadata", ptr %4, i32 0, i32 13
  %14 = load i64, ptr %13, align 8, !tbaa !39
  %15 = getelementptr inbounds nuw %"class.LightGBM::Metadata", ptr %4, i32 0, i32 1
  %16 = load i32, ptr %15, align 8, !tbaa !40
  %17 = sext i32 %16 to i64
  %18 = sdiv i64 %14, %17
  %19 = trunc i64 %18 to i32
  store i32 %19, ptr %2, align 4
  br label %21

20:                                               ; preds = %8, %1
  store i32 1, ptr %2, align 4
  br label %21

21:                                               ; preds = %20, %12
  %22 = load i32, ptr %2, align 4
  ret i32 %22
}

; Function Attrs: mustprogress uwtable
define void @_ZN8LightGBM8Metadata15InitByReferenceEiPKS0_(ptr noundef nonnull align 8 dereferenceable(300) %0, i32 noundef %1, ptr noundef %2) #8 align 2 {
  %4 = alloca ptr, align 8
  %5 = alloca i32, align 4
  %6 = alloca ptr, align 8
  %7 = alloca i32, align 4
  %8 = alloca i32, align 4
  %9 = alloca i32, align 4
  %10 = alloca i32, align 4
  store ptr %0, ptr %4, align 8, !tbaa !4
  store i32 %1, ptr %5, align 4, !tbaa !103
  store ptr %2, ptr %6, align 8, !tbaa !4
  %11 = load ptr, ptr %4, align 8
  call void @llvm.lifetime.start.p0(i64 4, ptr %7) #3
  %12 = load ptr, ptr %6, align 8, !tbaa !4
  %13 = getelementptr inbounds nuw %"class.LightGBM::Metadata", ptr %12, i32 0, i32 2
  %14 = load i32, ptr %13, align 4, !tbaa !9
  %15 = icmp sgt i32 %14, 0
  %16 = zext i1 %15 to i32
  store i32 %16, ptr %7, align 4, !tbaa !103
  call void @llvm.lifetime.start.p0(i64 4, ptr %8) #3
  %17 = load ptr, ptr %6, align 8, !tbaa !4
  %18 = getelementptr inbounds nuw %"class.LightGBM::Metadata", ptr %17, i32 0, i32 13
  %19 = load i64, ptr %18, align 8, !tbaa !39
  %20 = icmp sgt i64 %19, 0
  %21 = zext i1 %20 to i32
  store i32 %21, ptr %8, align 4, !tbaa !103
  call void @llvm.lifetime.start.p0(i64 4, ptr %9) #3
  %22 = load ptr, ptr %6, align 8, !tbaa !4
  %23 = getelementptr inbounds nuw %"class.LightGBM::Metadata", ptr %22, i32 0, i32 11
  %24 = load i32, ptr %23, align 8, !tbaa !41
  %25 = icmp sgt i32 %24, 0
  %26 = zext i1 %25 to i32
  store i32 %26, ptr %9, align 4, !tbaa !103
  call void @llvm.lifetime.start.p0(i64 4, ptr %10) #3
  %27 = load ptr, ptr %6, align 8, !tbaa !4
  %28 = call noundef i32 @_ZNK8LightGBM8Metadata22num_init_score_classesEv(ptr noundef nonnull align 8 dereferenceable(300) %27)
  store i32 %28, ptr %10, align 4, !tbaa !103
  %29 = load i32, ptr %5, align 4, !tbaa !103
  %30 = load i32, ptr %7, align 4, !tbaa !103
  %31 = load i32, ptr %8, align 4, !tbaa !103
  %32 = load i32, ptr %9, align 4, !tbaa !103
  %33 = load i32, ptr %10, align 4, !tbaa !103
  call void @_ZN8LightGBM8Metadata4InitEiiiii(ptr noundef nonnull align 8 dereferenceable(300) %11, i32 noundef %29, i32 noundef %30, i32 noundef %31, i32 noundef %32, i32 noundef %33)
  call void @llvm.lifetime.end.p0(i64 4, ptr %10) #3
  call void @llvm.lifetime.end.p0(i64 4, ptr %9) #3
  call void @llvm.lifetime.end.p0(i64 4, ptr %8) #3
  call void @llvm.lifetime.end.p0(i64 4, ptr %7) #3
  ret void
}