; Function Attrs: mustprogress uwtable
define void @_ZN8LightGBM8Metadata15InitByReferenceEiPKS0_(ptr noundef nonnull align 8 dereferenceable(300) initializes((32, 36)) %0, i32 noundef %1, ptr noundef readonly captures(none) %2) local_unnamed_addr #8 align 2 {
  %4 = getelementptr inbounds nuw i8, ptr %2, i64 36
  %5 = load i32, ptr %4, align 4, !tbaa !14
  %6 = getelementptr inbounds nuw i8, ptr %2, i64 200
  %7 = load i64, ptr %6, align 8, !tbaa !92
  %8 = getelementptr inbounds nuw i8, ptr %2, i64 192
  %9 = load i32, ptr %8, align 8, !tbaa !42
  %10 = getelementptr inbounds nuw i8, ptr %2, i64 32
  %11 = load i32, ptr %10, align 8, !tbaa !40
  %.not.i = icmp eq i32 %11, 0
  %.not3.i = icmp eq i64 %7, 0
  %or.cond = select i1 %.not.i, i1 true, i1 %.not3.i
  br i1 %or.cond, label %_ZNK8LightGBM8Metadata22num_init_score_classesEv.exit, label %12

12:                                               ; preds = %3
  %13 = sext i32 %11 to i64
  %14 = sdiv i64 %7, %13
  %15 = trunc i64 %14 to i32
  br label %_ZNK8LightGBM8Metadata22num_init_score_classesEv.exit

_ZNK8LightGBM8Metadata22num_init_score_classesEv.exit: ; preds = %3, %12
  %.0.i = phi i32 [ %15, %12 ], [ 1, %3 ]
  %16 = icmp sgt i32 %9, 0
  %17 = zext i1 %16 to i32
  %18 = icmp sgt i64 %7, 0
  %19 = zext i1 %18 to i32
  %20 = icmp sgt i32 %5, 0
  %21 = zext i1 %20 to i32
  tail call void @_ZN8LightGBM8Metadata4InitEiiiii(ptr noundef nonnull align 8 dereferenceable(300) %0, i32 noundef %1, i32 noundef %21, i32 noundef %19, i32 noundef %17, i32 noundef %.0.i)
  ret void
}